BL51 BANKED LINKER/LOCATER V6.22.2.0                                                    01/06/2020  19:42:18  PAGE 1


BL51 BANKED LINKER/LOCATER V6.22.2.0, INVOKED BY:
D:\KEIL\C51\BIN\BL51.EXE .\Objects\STARTUP.obj, .\Objects\main.obj, .\Objects\S_TouchKeyCFG.obj, .\SC92F8X6XB_HighSensit
>> ive_Lib_T1_V1.2.0.LIB TO .\Objects\test PRINT (.\Listings\test.m51) RAMSIZE (256) CODE (0X0100)


MEMORY MODEL: SMALL


INPUT MODULES INCLUDED:
  .\Objects\STARTUP.obj (?C_STARTUP)
  .\Objects\main.obj (MAIN)
  .\Objects\S_TouchKeyCFG.obj (S_TOUCHKEYCFG)
  .\SC92F8X6XB_HighSensitive_Lib_T1_V1.2.0.LIB (SENSORMETHOD)
  D:\KEIL\C51\LIB\C51S.LIB (?C_INIT)
  D:\KEIL\C51\LIB\C51S.LIB (?C?IMUL)
  D:\KEIL\C51\LIB\C51S.LIB (?C?UIDIV)
  D:\KEIL\C51\LIB\C51S.LIB (?C?IILDX)
  D:\KEIL\C51\LIB\C51S.LIB (?C?LNOT)
  D:\KEIL\C51\LIB\C51S.LIB (?C?ULCMP)
  D:\KEIL\C51\LIB\C51S.LIB (?C?ULSHR)
  D:\KEIL\C51\LIB\C51S.LIB (?C?LSHL)
  D:\KEIL\C51\LIB\C51S.LIB (?C?OFFXADD)


LINK MAP OF MODULE:  .\Objects\test (?C_STARTUP)


            TYPE    BASE      LENGTH    RELOCATION   SEGMENT NAME
            -----------------------------------------------------

            * * * * * * *   D A T A   M E M O R Y   * * * * * * *
            REG     0000H     0008H     ABSOLUTE     "REG BANK 0"
            DATA    0008H     0014H     UNIT         _DATA_GROUP_
                    001CH     0004H                  *** GAP ***
            BIT     0020H.0   0000H.2   UNIT         ?BI?SENSORMETHOD
            BIT     0020H.2   0000H.1   UNIT         _BIT_GROUP_
                    0020H.3   0000H.5                *** GAP ***
            DATA    0021H     000CH     UNIT         ?DT?MAIN
            DATA    002DH     0009H     UNIT         ?DT?SENSORMETHOD
            IDATA   0036H     0001H     UNIT         ?STACK

            * * * * * * *  X D A T A   M E M O R Y  * * * * * * *
            XDATA   0000H     0062H     UNIT         ?XD?S_TOUCHKEYCFG
            XDATA   0062H     0009H     UNIT         ?XD?SENSORMETHOD
            XDATA   006BH     0001H     UNIT         _XDATA_GROUP_

            * * * * * * *   C O D E   M E M O R Y   * * * * * * *
            CODE    0000H     0003H     ABSOLUTE     
                    0003H     0008H                  *** GAP ***
            CODE    000BH     0003H     ABSOLUTE     
                    000EH     000DH                  *** GAP ***
            CODE    001BH     0003H     ABSOLUTE     
                    001EH     001DH                  *** GAP ***
            CODE    003BH     0003H     ABSOLUTE     
                    003EH     001DH                  *** GAP ***
            CODE    005BH     0003H     ABSOLUTE     
                    005EH     00A2H                  *** GAP ***
            CODE    0100H     03A8H     UNIT         ?PR?_SENSORRENOVATE?SENSORMETHOD
BL51 BANKED LINKER/LOCATER V6.22.2.0                                                  01/06/2020  19:42:18  PAGE 2


            CODE    04A8H     0130H     UNIT         ?PR?TOUCHKEYSCAN?S_TOUCHKEYCFG
            CODE    05D8H     011FH     UNIT         ?PR?_MULTIPLEDEAL?SENSORMETHOD
            CODE    06F7H     011FH     UNIT         ?PR?SENSORMETHOD
            CODE    0816H     00CDH     UNIT         ?C?LIB_CODE
            CODE    08E3H     00BBH     UNIT         ?PR?_FILTERDATADEAL?SENSORMETHOD
            CODE    099EH     008CH     UNIT         ?C_C51STARTUP
            CODE    0A2AH     007FH     UNIT         ?PR?_ICHAADJUST?SENSORMETHOD
            CODE    0AA9H     007AH     UNIT         ?PR?TOUCHKEY_SERVICE?SENSORMETHOD
            CODE    0B23H     0078H     UNIT         ?PR?TOUCHKEYINIT?SENSORMETHOD
            CODE    0B9BH     0076H     UNIT         ?PR?TIMER0?MAIN
            CODE    0C11H     0070H     UNIT         ?PR?TIMER1?MAIN
            CODE    0C81H     0058H     UNIT         ?PR?FILTERAVERGEDEAL?SENSORMETHOD
            CODE    0CD9H     0054H     UNIT         ?PR?CURRENTSENSORCHOOSE?S_TOUCHKEYCFG
            CODE    0D2DH     0052H     UNIT         ?CO?S_TOUCHKEYCFG
            CODE    0D7FH     004CH     UNIT         ?PR?INITIALIZESENSORFLAG?SENSORMETHOD
            CODE    0DCBH     0047H     UNIT         ?PR?TOUCHKEYCFGINIT?S_TOUCHKEYCFG
            CODE    0E12H     0043H     UNIT         ?PR?MAIN?MAIN
            CODE    0E55H     003DH     UNIT         ?PR?TWI_INT?MAIN
            CODE    0E92H     003BH     UNIT         ?PR?CTK_ISR?S_TOUCHKEYCFG
            CODE    0ECDH     002DH     UNIT         ?PR?_GETCFGMSG?S_TOUCHKEYCFG
            CODE    0EFAH     002CH     UNIT         ?PR?_GETCURRFINGERVALUE?S_TOUCHKEYCFG
            CODE    0F26H     0027H     UNIT         ?PR?SYS_INIT?MAIN
            CODE    0F4DH     0025H     UNIT         ?PR?FILTERCOMMCODE?SENSORMETHOD
            CODE    0F72H     0025H     UNIT         ?PR?SENSORKEYFLAG?SENSORMETHOD
            CODE    0F97H     0024H     UNIT         ?PR?INITIALIZEBASELINES?SENSORMETHOD
            CODE    0FBBH     0021H     UNIT         ?PR?FILTERIIRINIT?SENSORMETHOD
            CODE    0FDCH     0015H     UNIT         ?PR?_GETTKYZTHRESHOLD?S_TOUCHKEYCFG
            CODE    0FF1H     0013H     UNIT         ?PR?TIMER_INIT?MAIN
            CODE    1004H     0012H     UNIT         ?PR?_GETSCANTIMEVALUE?S_TOUCHKEYCFG
            CODE    1016H     0011H     UNIT         ?C_INITSEG
            CODE    1027H     000DH     UNIT         ?PR?TWI_INIT?MAIN
            CODE    1034H     000DH     UNIT         ?PR?_GETBASELINEADJUSTVALUE?S_TOUCHKEYCFG
            CODE    1041H     000CH     UNIT         ?PR?_USDELAY?SENSORMETHOD
            CODE    104DH     000BH     UNIT         ?PR?SETONEKEYPUSHRESETTIME?S_TOUCHKEYCFG
            CODE    1058H     000BH     UNIT         ?PR?GETBASELINEUPDATETHRESHOLD?S_TOUCHKEYCFG
            CODE    1063H     000AH     UNIT         ?PR?GETTKYZCNT?S_TOUCHKEYCFG
            CODE    106DH     0008H     UNIT         ?PR?GETINITAUTOUPDATETIME?S_TOUCHKEYCFG
            CODE    1075H     0008H     UNIT         ?PR?ISDOUBLEKEYORSLIDEKEY?S_TOUCHKEYCFG
            CODE    107DH     0008H     UNIT         ?PR?GETUPCONFIRMCNT?S_TOUCHKEYCFG
            CODE    1085H     0005H     UNIT         ?PR?SSI_TWI_RECEIVEDATA?MAIN
            CODE    108AH     0004H     UNIT         ?PR?BEEP?MAIN
            CODE    108EH     0004H     UNIT         ?PR?BEEPSTOP?MAIN
            CODE    1092H     0004H     UNIT         ?PR?LED1_ON?MAIN
            CODE    1096H     0004H     UNIT         ?PR?LED1_OFF?MAIN
            CODE    109AH     0004H     UNIT         ?PR?LED2_ON?MAIN
            CODE    109EH     0004H     UNIT         ?PR?LED2_OFF?MAIN
            CODE    10A2H     0004H     UNIT         ?PR?LED3_ON?MAIN
            CODE    10A6H     0004H     UNIT         ?PR?LED3_OFF?MAIN
            CODE    10AAH     0003H     UNIT         ?PR?GETCSFUNCTION?S_TOUCHKEYCFG
            CODE    10ADH     0003H     UNIT         ?PR?TOUCHKEYRESTART?SENSORMETHOD
            CODE    10B0H     0003H     UNIT         ?PR?GETISNEEDUPDATEBASELINE?SENSORMETHOD
            CODE    10B3H     0003H     UNIT         ?PR?SETNEEDUPDATEBASELINE?SENSORMETHOD



OVERLAY MAP OF MODULE:   .\Objects\test (?C_STARTUP)

BL51 BANKED LINKER/LOCATER V6.22.2.0                                                  01/06/2020  19:42:18  PAGE 3



SEGMENT                                             BIT_GROUP          DATA_GROUP          XDATA_GROUP
  +--> CALLED SEGMENT                            START    LENGTH     START    LENGTH     START    LENGTH
--------------------------------------------------------------------------------------------------------
?C_C51STARTUP                                    -----    -----      -----    -----      -----    -----
  +--> ?PR?MAIN?MAIN
  +--> ?C_INITSEG

?PR?MAIN?MAIN                                    -----    -----      -----    -----      -----    -----
  +--> ?PR?SYS_INIT?MAIN
  +--> ?PR?LED1_OFF?MAIN
  +--> ?PR?LED2_ON?MAIN
  +--> ?PR?LED3_ON?MAIN
  +--> ?PR?TWI_INIT?MAIN
  +--> ?PR?TIMER_INIT?MAIN
  +--> ?PR?TOUCHKEYINIT?SENSORMETHOD
  +--> ?PR?TOUCHKEYSCAN?S_TOUCHKEYCFG
  +--> ?PR?BEEP?MAIN
  +--> ?PR?LED2_OFF?MAIN
  +--> ?PR?BEEPSTOP?MAIN
  +--> ?PR?TOUCHKEYRESTART?SENSORMETHOD

?PR?TOUCHKEYINIT?SENSORMETHOD                    -----    -----      -----    -----      -----    -----
  +--> ?PR?TOUCHKEYCFGINIT?S_TOUCHKEYCFG
  +--> ?PR?_GETCFGMSG?S_TOUCHKEYCFG
  +--> ?PR?_GETSCANTIMEVALUE?S_TOUCHKEYCFG
  +--> ?PR?SENSORMETHOD
  +--> ?PR?INITIALIZESENSORFLAG?SENSORMETHOD
  +--> ?PR?FILTERAVERGEDEAL?SENSORMETHOD
  +--> ?PR?INITIALIZEBASELINES?SENSORMETHOD

?PR?TOUCHKEYCFGINIT?S_TOUCHKEYCFG                -----    -----      -----    -----      -----    -----
  +--> ?CO?S_TOUCHKEYCFG
  +--> ?PR?CURRENTSENSORCHOOSE?S_TOUCHKEYCFG

?PR?CURRENTSENSORCHOOSE?S_TOUCHKEYCFG            -----    -----      0008H    0004H      -----    -----

?PR?_GETCFGMSG?S_TOUCHKEYCFG                     -----    -----      -----    -----      -----    -----
  +--> ?CO?S_TOUCHKEYCFG

?PR?_GETSCANTIMEVALUE?S_TOUCHKEYCFG              -----    -----      -----    -----      -----    -----
  +--> ?CO?S_TOUCHKEYCFG

?PR?INITIALIZESENSORFLAG?SENSORMETHOD            -----    -----      -----    -----      -----    -----
  +--> ?PR?SENSORMETHOD

?PR?FILTERAVERGEDEAL?SENSORMETHOD                -----    -----      0008H    0002H      -----    -----
  +--> ?PR?FILTERCOMMCODE?SENSORMETHOD
  +--> ?PR?SENSORMETHOD
  +--> ?PR?_ICHAADJUST?SENSORMETHOD
  +--> ?PR?FILTERIIRINIT?SENSORMETHOD
  +--> ?PR?GETINITAUTOUPDATETIME?S_TOUCHKEYCFG
  +--> ?PR?_FILTERDATADEAL?SENSORMETHOD

?PR?FILTERCOMMCODE?SENSORMETHOD                  -----    -----      -----    -----      -----    -----
  +--> ?PR?_USDELAY?SENSORMETHOD

BL51 BANKED LINKER/LOCATER V6.22.2.0                                                  01/06/2020  19:42:18  PAGE 4


?PR?_ICHAADJUST?SENSORMETHOD                     -----    -----      001BH    0001H      006BH    0001H
  +--> ?PR?_GETBASELINEADJUSTVALUE?S_TOUCHKE...
  +--> ?PR?_GETSCANTIMEVALUE?S_TOUCHKEYCFG
  +--> ?PR?SENSORMETHOD

?PR?FILTERIIRINIT?SENSORMETHOD                   -----    -----      -----    -----      -----    -----
  +--> ?PR?SENSORMETHOD

?PR?GETINITAUTOUPDATETIME?S_TOUCHKEYCFG          -----    -----      -----    -----      -----    -----
  +--> ?CO?S_TOUCHKEYCFG

?PR?_FILTERDATADEAL?SENSORMETHOD                 -----    -----      0013H    0003H      -----    -----
  +--> ?PR?SENSORMETHOD
  +--> ?PR?_GETCURRFINGERVALUE?S_TOUCHKEYCFG

?PR?_GETCURRFINGERVALUE?S_TOUCHKEYCFG            -----    -----      -----    -----      -----    -----
  +--> ?CO?S_TOUCHKEYCFG

?PR?INITIALIZEBASELINES?SENSORMETHOD             -----    -----      -----    -----      -----    -----
  +--> ?PR?SENSORMETHOD

?PR?TOUCHKEYSCAN?S_TOUCHKEYCFG                   -----    -----      0008H    0009H      -----    -----
  +--> ?PR?GETISNEEDUPDATEBASELINE?SENSORMETHOD
  +--> ?PR?SENSORKEYFLAG?SENSORMETHOD
  +--> ?PR?SETNEEDUPDATEBASELINE?SENSORMETHOD
  +--> ?PR?ISDOUBLEKEYORSLIDEKEY?S_TOUCHKEYCFG
  +--> ?PR?SETONEKEYPUSHRESETTIME?S_TOUCHKEYCFG
  +--> ?CO?S_TOUCHKEYCFG
  +--> ?PR?_MULTIPLEDEAL?SENSORMETHOD

?PR?SENSORKEYFLAG?SENSORMETHOD                   -----    -----      0011H    0001H      -----    -----
  +--> ?PR?_FILTERDATADEAL?SENSORMETHOD
  +--> ?PR?_SENSORRENOVATE?SENSORMETHOD

?PR?_SENSORRENOVATE?SENSORMETHOD                 -----    -----      0012H    0009H      -----    -----
  +--> ?PR?SENSORMETHOD
  +--> ?PR?_GETCURRFINGERVALUE?S_TOUCHKEYCFG
  +--> ?PR?GETCSFUNCTION?S_TOUCHKEYCFG
  +--> ?PR?ISDOUBLEKEYORSLIDEKEY?S_TOUCHKEYCFG
  +--> ?PR?GETTKYZCNT?S_TOUCHKEYCFG
  +--> ?PR?_GETTKYZTHRESHOLD?S_TOUCHKEYCFG
  +--> ?PR?GETBASELINEUPDATETHRESHOLD?S_TOUC...
  +--> ?PR?GETUPCONFIRMCNT?S_TOUCHKEYCFG
  +--> ?PR?_ICHAADJUST?SENSORMETHOD

?PR?ISDOUBLEKEYORSLIDEKEY?S_TOUCHKEYCFG          -----    -----      -----    -----      -----    -----
  +--> ?CO?S_TOUCHKEYCFG

?PR?_GETTKYZTHRESHOLD?S_TOUCHKEYCFG              -----    -----      -----    -----      -----    -----
  +--> ?PR?_GETCURRFINGERVALUE?S_TOUCHKEYCFG

?PR?GETBASELINEUPDATETHRESHOLD?S_TOUC...         -----    -----      -----    -----      -----    -----
  +--> ?CO?S_TOUCHKEYCFG

?PR?SETONEKEYPUSHRESETTIME?S_TOUCHKEYCFG         -----    -----      -----    -----      -----    -----
  +--> ?CO?S_TOUCHKEYCFG

BL51 BANKED LINKER/LOCATER V6.22.2.0                                                  01/06/2020  19:42:18  PAGE 5


?PR?_MULTIPLEDEAL?SENSORMETHOD                   -----    -----      0011H    0002H      -----    -----
  +--> ?PR?SENSORMETHOD
  +--> ?PR?INITIALIZESENSORFLAG?SENSORMETHOD
  +--> ?PR?FILTERIIRINIT?SENSORMETHOD
  +--> ?PR?_FILTERDATADEAL?SENSORMETHOD
  +--> ?PR?INITIALIZEBASELINES?SENSORMETHOD

*** NEW ROOT ***************************************************

?PR?TWI_INT?MAIN                                 -----    -----      -----    -----      -----    -----
  +--> ?PR?SSI_TWI_RECEIVEDATA?MAIN

*** NEW ROOT ***************************************************

?PR?CTK_ISR?S_TOUCHKEYCFG                        -----    -----      -----    -----      -----    -----
  +--> ?PR?TOUCHKEY_SERVICE?SENSORMETHOD

?PR?TOUCHKEY_SERVICE?SENSORMETHOD                0020H.2  0000H.1    -----    -----      -----    -----
  +--> ?PR?SENSORMETHOD
  +--> ?PR?_GETCFGMSG?S_TOUCHKEYCFG
  +--> ?PR?_GETSCANTIMEVALUE?S_TOUCHKEYCFG
  +--> ?PR?_GETBASELINEADJUSTVALUE?S_TOUCHKE...



SYMBOL TABLE OF MODULE:  .\Objects\test (?C_STARTUP)

  VALUE           TYPE          NAME
  ----------------------------------

  -------         MODULE        ?C_STARTUP
  C:099EH         SEGMENT       ?C_C51STARTUP
  I:0036H         SEGMENT       ?STACK
  C:0000H         PUBLIC        ?C_STARTUP
  D:00E0H         SYMBOL        ACC
  D:00F0H         SYMBOL        B
  D:0083H         SYMBOL        DPH
  D:0082H         SYMBOL        DPL
  N:0000H         SYMBOL        IBPSTACK
  N:0100H         SYMBOL        IBPSTACKTOP
  N:0080H         SYMBOL        IDATALEN
  C:09A1H         SYMBOL        IDATALOOP
  N:0000H         SYMBOL        PBPSTACK
  N:0100H         SYMBOL        PBPSTACKTOP
  N:0000H         SYMBOL        PDATALEN
  N:0000H         SYMBOL        PDATASTART
  N:0000H         SYMBOL        PPAGE
  N:0000H         SYMBOL        PPAGEENABLE
  D:00A0H         SYMBOL        PPAGE_SFR
  D:0081H         SYMBOL        SP
  C:099EH         SYMBOL        STARTUP1
  N:0000H         SYMBOL        XBPSTACK
  N:0000H         SYMBOL        XBPSTACKTOP
  N:0000H         SYMBOL        XDATALEN
  N:0000H         SYMBOL        XDATASTART
  C:0000H         LINE#         126
  C:099EH         LINE#         133
BL51 BANKED LINKER/LOCATER V6.22.2.0                                                  01/06/2020  19:42:18  PAGE 6


  C:09A0H         LINE#         134
  C:09A1H         LINE#         135
  C:09A2H         LINE#         136
  C:09A4H         LINE#         185
  C:09A7H         LINE#         196
  -------         ENDMOD        ?C_STARTUP

  -------         MODULE        MAIN
  C:0000H         SYMBOL        _ICE_DUMMY_
  D:0080H         PUBLIC        P0
  D:009FH         PUBLIC        SSDAT
  D:0090H         PUBLIC        P1
  C:0E55H         PUBLIC        TWI_Int
  D:00A0H         PUBLIC        P2
  D:008EH         PUBLIC        TMCON
  C:1092H         PUBLIC        LED1_ON
  D:008FH         PUBLIC        OTCON
  D:00D8H         PUBLIC        P5
  C:109AH         PUBLIC        LED2_ON
  B:00A8H.7       PUBLIC        EA
  C:10A2H         PUBLIC        LED3_ON
  D:0021H         PUBLIC        Status
  D:00A8H         PUBLIC        IE
  D:009BH         PUBLIC        P0PH
  D:00B8H         PUBLIC        IP
  D:0092H         PUBLIC        P1PH
  D:00A2H         PUBLIC        P2PH
  C:108AH         PUBLIC        beep
  D:00DAH         PUBLIC        P5PH
  C:0E12H         PUBLIC        main
  D:0023H         PUBLIC        tick
  B:0080H.4       PUBLIC        P04
  D:0098H         PUBLIC        SCON
  D:0088H         PUBLIC        TCON
  D:0089H         PUBLIC        TMOD
  D:009DH         PUBLIC        SSCON0
  D:009EH         PUBLIC        SSCON1
  D:00A9H         PUBLIC        IE1
  C:1096H         PUBLIC        LED1_OFF
  C:109EH         PUBLIC        LED2_OFF
  C:10A6H         PUBLIC        LED3_OFF
  C:108EH         PUBLIC        beepStop
  B:00A8H.1       PUBLIC        ET0
  D:008CH         PUBLIC        TH0
  D:008AH         PUBLIC        TL0
  C:0B9BH         PUBLIC        timer0
  C:0C11H         PUBLIC        timer1
  B:0088H.4       PUBLIC        TR0
  C:0F26H         PUBLIC        Sys_init
  D:0027H         PUBLIC        tk
  D:009AH         PUBLIC        P0CON
  D:0091H         PUBLIC        P1CON
  D:00A1H         PUBLIC        P2CON
  D:00D9H         PUBLIC        P5CON
  D:00C8H         PUBLIC        T2CON
  C:1085H         PUBLIC        SSI_TWI_ReceiveData
  C:1027H         PUBLIC        TWI_Init
BL51 BANKED LINKER/LOCATER V6.22.2.0                                                  01/06/2020  19:42:18  PAGE 7


  C:0FF1H         PUBLIC        Timer_Init
  D:00D0H         PUBLIC        PSW
  D:002BH         PUBLIC        buffer
  -------         PROC          BEEP
  C:108AH         LINE#         9
  C:108AH         LINE#         10
  C:108DH         LINE#         11
  -------         ENDPROC       BEEP
  -------         PROC          BEEPSTOP
  C:108EH         LINE#         13
  C:108EH         LINE#         14
  C:1091H         LINE#         15
  -------         ENDPROC       BEEPSTOP
  -------         PROC          LED1_ON
  C:1092H         LINE#         17
  C:1092H         LINE#         18
  C:1095H         LINE#         19
  -------         ENDPROC       LED1_ON
  -------         PROC          LED1_OFF
  C:1096H         LINE#         21
  C:1096H         LINE#         22
  C:1099H         LINE#         23
  -------         ENDPROC       LED1_OFF
  -------         PROC          LED2_ON
  C:109AH         LINE#         25
  C:109AH         LINE#         26
  C:109DH         LINE#         27
  -------         ENDPROC       LED2_ON
  -------         PROC          LED2_OFF
  C:109EH         LINE#         29
  C:109EH         LINE#         30
  C:10A1H         LINE#         31
  -------         ENDPROC       LED2_OFF
  -------         PROC          LED3_ON
  C:10A2H         LINE#         33
  C:10A2H         LINE#         34
  C:10A5H         LINE#         35
  -------         ENDPROC       LED3_ON
  -------         PROC          LED3_OFF
  C:10A6H         LINE#         37
  C:10A6H         LINE#         38
  C:10A9H         LINE#         39
  -------         ENDPROC       LED3_OFF
  -------         PROC          SSI_TWI_RECEIVEDATA
  C:1085H         LINE#         41
  C:1085H         LINE#         42
  C:1089H         LINE#         43
  -------         ENDPROC       SSI_TWI_RECEIVEDATA
  -------         PROC          SYS_INIT
  C:0F26H         LINE#         45
  C:0F26H         LINE#         46
  C:0F29H         LINE#         47
  C:0F2CH         LINE#         48
  C:0F2FH         LINE#         49
  C:0F32H         LINE#         50
  C:0F35H         LINE#         51
  C:0F38H         LINE#         52
BL51 BANKED LINKER/LOCATER V6.22.2.0                                                  01/06/2020  19:42:18  PAGE 8


  C:0F3BH         LINE#         53
  C:0F3EH         LINE#         55
  C:0F41H         LINE#         56
  C:0F44H         LINE#         57
  C:0F47H         LINE#         58
  C:0F4AH         LINE#         59
  C:0F4CH         LINE#         60
  -------         ENDPROC       SYS_INIT
  -------         PROC          TIMER_INIT
  C:0FF1H         LINE#         62
  C:0FF1H         LINE#         63
  C:0FF4H         LINE#         71
  C:0FF7H         LINE#         72
  C:0FFAH         LINE#         73
  C:0FFDH         LINE#         74
  C:0FFFH         LINE#         75
  C:1001H         LINE#         76
  C:1003H         LINE#         77
  -------         ENDPROC       TIMER_INIT
  -------         PROC          TWI_INIT
  C:1027H         LINE#         79
  C:1027H         LINE#         80
  C:102AH         LINE#         81
  C:102DH         LINE#         82
  C:1030H         LINE#         83
  C:1033H         LINE#         84
  -------         ENDPROC       TWI_INIT
  -------         PROC          MAIN
  C:0E12H         LINE#         86
  C:0E12H         LINE#         87
  C:0E15H         LINE#         88
  C:0E18H         LINE#         89
  C:0E1BH         LINE#         90
  C:0E1EH         LINE#         91
  C:0E21H         LINE#         92
  C:0E24H         LINE#         93
  C:0E27H         LINE#         94
  C:0E27H         LINE#         95
  C:0E2EH         LINE#         96
  C:0E31H         LINE#         97
  C:0E3CH         LINE#         98
  C:0E42H         LINE#         99
  C:0E45H         LINE#         100
  C:0E48H         LINE#         101
  C:0E4AH         LINE#         102
  C:0E4DH         LINE#         103
  C:0E50H         LINE#         104
  C:0E50H         LINE#         105
  C:0E53H         LINE#         106
  C:0E53H         LINE#         107
  -------         ENDPROC       MAIN
  -------         PROC          TIMER0
  C:0B9BH         LINE#         110
  C:0BB8H         LINE#         111
  C:0BBBH         LINE#         112
  C:0BBEH         LINE#         113
  C:0BD3H         LINE#         114
BL51 BANKED LINKER/LOCATER V6.22.2.0                                                  01/06/2020  19:42:18  PAGE 9


  C:0BE8H         LINE#         115
  C:0BF4H         LINE#         116
  C:0BF6H         LINE#         117
  C:0BF6H         LINE#         118
  -------         ENDPROC       TIMER0
  -------         PROC          TIMER1
  C:0C11H         LINE#         120
  C:0C2EH         LINE#         121
  C:0C43H         LINE#         122
  C:0C58H         LINE#         123
  C:0C64H         LINE#         124
  C:0C66H         LINE#         125
  C:0C66H         LINE#         126
  -------         ENDPROC       TIMER1
  -------         PROC          TWI_INT
  C:0E55H         LINE#         128
  C:0E60H         LINE#         129
  C:0E65H         LINE#         130
  C:0E68H         LINE#         131
  C:0E71H         LINE#         132
  C:0E7BH         LINE#         133
  C:0E7BH         LINE#         134
  C:0E7BH         LINE#         135
  C:0E7BH         LINE#         136
  C:0E82H         LINE#         137
  C:0E89H         LINE#         138
  C:0E89H         LINE#         139
  C:0E89H         LINE#         140
  C:0E89H         LINE#         141
  C:0E89H         LINE#         142
  C:0E89H         LINE#         143
  C:0E89H         LINE#         144
  C:0E89H         LINE#         145
  C:0E89H         LINE#         146
  C:0E89H         LINE#         147
  C:0E89H         LINE#         148
  C:0E89H         LINE#         149
  C:0E89H         LINE#         150
  -------         ENDPROC       TWI_INT
  -------         ENDMOD        MAIN

  -------         MODULE        S_TOUCHKEYCFG
  C:0000H         SYMBOL        _ICE_DUMMY_
  X:0000H         PUBLIC        ConfirmTouchCnt
  X:0001H         PUBLIC        BaseLine
  C:0DCBH         PUBLIC        TouchKeyCFGInit
  C:1034H         PUBLIC        _GetBaseLineAdjustValue
  X:000DH         PUBLIC        FloatAreaCnt
  B:00D0H.7       PUBLIC        TK_CY
  C:0EFAH         PUBLIC        _GetCurrFingerValue
  C:10AAH         PUBLIC        GetCsFunction
  X:0013H         PUBLIC        CurrentChannel
  X:0019H         PUBLIC        RawData
  C:1075H         PUBLIC        IsDoubleKeyOrSlideKey
  X:0025H         PUBLIC        TouchCnt
  C:0E92H         PUBLIC        CTK_ISR
  X:002BH         PUBLIC        LowFingerDataCnt
BL51 BANKED LINKER/LOCATER V6.22.2.0                                                  01/06/2020  19:42:18  PAGE 10


  C:04A8H         PUBLIC        TouchKeyScan
  C:104DH         PUBLIC        SetOneKeyPushResetTime
  C:1004H         PUBLIC        _GetScanTimeValue
  C:1063H         PUBLIC        GetTKYzCnt
  X:0031H         PUBLIC        DifferAccum
  X:003DH         PUBLIC        RestAreaCnt
  C:0FDCH         PUBLIC        _GetTKYzThreshold
  X:0043H         PUBLIC        BaseLineAdjusttmp
  C:0CD9H         PUBLIC        CurrentSensorChoose
  C:106DH         PUBLIC        GetInitAutoUpdateTime
  X:0049H         PUBLIC        MultipleLNum
  C:0ECDH         PUBLIC        _GetCfgMsg
  X:004BH         PUBLIC        SOCAPI_TouchKeyStatus
  C:107DH         PUBLIC        GetUpConfirmCnt
  X:004CH         PUBLIC        UpdateBaseLNum
  X:004EH         PUBLIC        SetNoiseThreshold
  C:1058H         PUBLIC        GetBaselineUpdateThreshold
  X:004FH         PUBLIC        FilterData
  X:005BH         PUBLIC        NoTouchCnt
  X:0061H         PUBLIC        MultipleDealTpye
  C:0D4FH         PUBLIC        TKChannelCfg
  C:0D2DH         PUBLIC        TKCFG
  D:00D0H         PUBLIC        TK_PSW
  -------         PROC          SETONEKEYPUSHRESETTIME
  C:104DH         LINE#         96
  C:104DH         LINE#         97
  C:104DH         LINE#         98
  C:1057H         LINE#         99
  -------         ENDPROC       SETONEKEYPUSHRESETTIME
  -------         PROC          GETBASELINEUPDATETHRESHOLD
  C:1058H         LINE#         107
  C:1058H         LINE#         108
  C:1058H         LINE#         109
  C:1062H         LINE#         110
  -------         ENDPROC       GETBASELINEUPDATETHRESHOLD
  -------         PROC          GETINITAUTOUPDATETIME
  C:106DH         LINE#         119
  C:106DH         LINE#         120
  C:106DH         LINE#         121
  C:1074H         LINE#         122
  -------         ENDPROC       GETINITAUTOUPDATETIME
  -------         PROC          GETCSFUNCTION
  C:10AAH         LINE#         130
  C:10AAH         LINE#         131
  C:10AAH         LINE#         132
  C:10ACH         LINE#         133
  -------         ENDPROC       GETCSFUNCTION
  -------         PROC          _GETCURRFINGERVALUE
  D:0005H         SYMBOL        i
  C:0EFAH         LINE#         141
  C:0EFCH         LINE#         142
  C:0EFCH         LINE#         143
  C:0F25H         LINE#         144
  -------         ENDPROC       _GETCURRFINGERVALUE
  -------         PROC          _GETSCANTIMEVALUE
  D:0007H         SYMBOL        i
  C:1004H         LINE#         153
BL51 BANKED LINKER/LOCATER V6.22.2.0                                                  01/06/2020  19:42:18  PAGE 11


  C:1004H         LINE#         154
  C:1004H         LINE#         155
  C:1015H         LINE#         156
  -------         ENDPROC       _GETSCANTIMEVALUE
  -------         PROC          ISDOUBLEKEYORSLIDEKEY
  C:1075H         LINE#         164
  C:1075H         LINE#         165
  C:1075H         LINE#         166
  C:107CH         LINE#         167
  -------         ENDPROC       ISDOUBLEKEYORSLIDEKEY
  -------         PROC          _GETBASELINEADJUSTVALUE
  D:0007H         SYMBOL        i
  C:1034H         LINE#         176
  C:1034H         LINE#         177
  C:1034H         LINE#         178
  C:1040H         LINE#         179
  -------         ENDPROC       _GETBASELINEADJUSTVALUE
  -------         PROC          GETUPCONFIRMCNT
  C:107DH         LINE#         187
  C:107DH         LINE#         188
  C:107DH         LINE#         189
  C:1084H         LINE#         190
  -------         ENDPROC       GETUPCONFIRMCNT
  -------         PROC          GETTKYZCNT
  C:1063H         LINE#         199
  C:1063H         LINE#         200
  C:1063H         LINE#         201
  C:106CH         LINE#         202
  -------         ENDPROC       GETTKYZCNT
  -------         PROC          _GETTKYZTHRESHOLD
  D:0007H         SYMBOL        i
  -------         DO            
  D:0006H         SYMBOL        SetFingerThresholdtmp
  -------         ENDDO         
  C:0FDCH         LINE#         211
  C:0FDCH         LINE#         212
  C:0FDCH         LINE#         215
  C:0FDFH         LINE#         216
  -------         ENDPROC       _GETTKYZTHRESHOLD
  -------         PROC          CURRENTSENSORCHOOSE
  -------         DO            
  D:0003H         SYMBOL        i
  D:0002H         SYMBOL        Ctk_Channel_mark
  D:0008H         SYMBOL        CurrentSensorKey
  -------         ENDDO         
  C:0CD9H         LINE#         227
  C:0CD9H         LINE#         228
  C:0CD9H         LINE#         229
  C:0CDBH         LINE#         230
  C:0CDCH         LINE#         231
  C:0CE4H         LINE#         233
  C:0CEEH         LINE#         235
  C:0CF8H         LINE#         236
  C:0CF8H         LINE#         237
  C:0D0DH         LINE#         238
  C:0D10H         LINE#         239
  C:0D10H         LINE#         240
BL51 BANKED LINKER/LOCATER V6.22.2.0                                                  01/06/2020  19:42:18  PAGE 12


  C:0D1CH         LINE#         241
  C:0D1DH         LINE#         242
  C:0D27H         LINE#         243
  C:0D27H         LINE#         244
  C:0D27H         LINE#         245
  C:0D2AH         LINE#         246
  C:0D2CH         LINE#         247
  -------         ENDPROC       CURRENTSENSORCHOOSE
  -------         PROC          _GETCFGMSG
  D:0007H         SYMBOL        i
  C:0ECDH         LINE#         256
  C:0ECDH         LINE#         257
  C:0ECDH         LINE#         258
  C:0EDEH         LINE#         259
  C:0EDEH         LINE#         260
  C:0EE3H         LINE#         261
  C:0EE8H         LINE#         262
  C:0EEBH         LINE#         263
  C:0EEFH         LINE#         264
  C:0EF7H         LINE#         265
  C:0EF9H         LINE#         266
  C:0EF9H         LINE#         267
  -------         ENDPROC       _GETCFGMSG
  -------         PROC          TOUCHKEYCFGINIT
  -------         DO            
  D:0007H         SYMBOL        i
  -------         ENDDO         
  C:0DCBH         LINE#         276
  C:0DCBH         LINE#         277
  C:0DCBH         LINE#         279
  C:0DD5H         LINE#         280
  C:0DDFH         LINE#         281
  C:0DE2H         LINE#         282
  C:0DEAH         LINE#         283
  C:0DEAH         LINE#         284
  C:0E07H         LINE#         285
  C:0E0AH         LINE#         286
  C:0E11H         LINE#         287
  -------         ENDPROC       TOUCHKEYCFGINIT
  -------         PROC          TOUCHKEYSCAN
  -------         DO            
  D:0003H         SYMBOL        t
  D:0008H         SYMBOL        MultipleCnt
  D:0009H         SYMBOL        Keyvalue
  D:000DH         SYMBOL        KeyData
  -------         ENDDO         
  C:04A8H         LINE#         299
  C:04A8H         LINE#         300
  C:04A8H         LINE#         302
  C:04ABH         LINE#         303
  C:04B3H         LINE#         304
  C:04BBH         LINE#         306
  C:04C3H         LINE#         307
  C:04C3H         LINE#         308
  C:04CEH         LINE#         309
  C:04D6H         LINE#         310
  C:04D6H         LINE#         311
BL51 BANKED LINKER/LOCATER V6.22.2.0                                                  01/06/2020  19:42:18  PAGE 13


  C:04EBH         LINE#         312
  C:04EEH         LINE#         313
  C:04EEH         LINE#         314
  C:0518H         LINE#         315
  C:051AH         LINE#         316
  C:051AH         LINE#         317
  C:051DH         LINE#         318
  C:052BH         LINE#         319
  C:052BH         LINE#         320
  C:052DH         LINE#         321
  C:0536H         LINE#         322
  C:0536H         LINE#         323
  C:0539H         LINE#         324
  C:053BH         LINE#         326
  C:053BH         LINE#         327
  C:0541H         LINE#         328
  C:0541H         LINE#         329
  C:0543H         LINE#         330
  C:0543H         LINE#         331
  C:0543H         LINE#         332
  C:0543H         LINE#         334
  C:0546H         LINE#         335
  C:0546H         LINE#         336
  C:0559H         LINE#         337
  C:0559H         LINE#         338
  C:0567H         LINE#         339
  C:0569H         LINE#         341
  C:0569H         LINE#         342
  C:0570H         LINE#         343
  C:0570H         LINE#         344
  C:0572H         LINE#         346
  C:0572H         LINE#         348
  C:0580H         LINE#         349
  C:0589H         LINE#         350
  C:0589H         LINE#         352
  C:0599H         LINE#         353
  C:0599H         LINE#         354
  C:059CH         LINE#         355
  C:05A3H         LINE#         356
  C:05A3H         LINE#         358
  C:05B2H         LINE#         359
  C:05B2H         LINE#         360
  C:05B5H         LINE#         361
  C:05BBH         LINE#         362
  C:05C2H         LINE#         363
  C:05C2H         LINE#         364
  C:05C4H         LINE#         366
  C:05C4H         LINE#         367
  C:05CFH         LINE#         368
  C:05CFH         LINE#         370
  C:05D7H         LINE#         371
  -------         ENDPROC       TOUCHKEYSCAN
  -------         PROC          CTK_ISR
  C:0E92H         LINE#         380
  C:0EAFH         LINE#         382
  C:0EB2H         LINE#         383
  -------         ENDPROC       CTK_ISR
BL51 BANKED LINKER/LOCATER V6.22.2.0                                                  01/06/2020  19:42:18  PAGE 14


  -------         ENDMOD        S_TOUCHKEYCFG

  -------         MODULE        SENSORMETHOD
  C:0000H         SYMBOL        _ICE_DUMMY_
  D:00FFH         PUBLIC        OPREG
  X:0063H         PUBLIC        FlowFingerRoundIndex
  C:0A2AH         PUBLIC        _ICHAAdjust
  D:00CFH         PUBLIC        TK_WDTCR
  B:00A8H.7       PUBLIC        TK_EA
  D:00E4H         PUBLIC        TKCNT
  D:00A8H         PUBLIC        TK_IE
  D:00FEH         PUBLIC        OPINX
  C:0D7FH         PUBLIC        InitializeSensorFlag
  X:0064H         PUBLIC        ScanTime
  C:10ADH         PUBLIC        TouchKeyRestart
  D:00E1H         PUBLIC        TKCFG0
  D:00E2H         PUBLIC        TKCFG1
  D:00E3H         PUBLIC        TKCFG2
  C:0F72H         PUBLIC        SensorKeyFlag
  D:002DH         PUBLIC        KeyFlag
  X:0066H         PUBLIC        FlowFingerRoundCnt
  B:0020H.0       PUBLIC        bMultiple
  D:00E8H         PUBLIC        TKCR
  C:0F97H         PUBLIC        InitializeBaselines
  B:00E8H.6       PUBLIC        TRIG
  D:0031H         PUBLIC        KeyMark
  C:10B3H         PUBLIC        SetNeedUpdateBaseline
  D:00A9H         PUBLIC        TK_IE1
  C:0C81H         PUBLIC        FilterAvergeDeal
  D:00E6H         PUBLIC        TKTM
  X:0068H         PUBLIC        MultipleDealIndex
  C:0100H         PUBLIC        _SensorRenovate
  B:0020H.1       PUBLIC        bNeedUpdate
  C:0B23H         PUBLIC        TouchKeyInit
  C:05D8H         PUBLIC        _MultipleDeal
  D:0035H         PUBLIC        CurrentChannelMax
  C:1041H         PUBLIC        _Usdelay
  C:08E3H         PUBLIC        _FilterDataDeal
  X:0069H         PUBLIC        CurrentIndex
  C:0FBBH         PUBLIC        FilterIIRInit
  C:0AA9H         PUBLIC        TouchKey_Service
  C:10B0H         PUBLIC        GetIsNeedUpdateBaseline
  X:006AH         PUBLIC        IsInNosicValue
  C:0F4DH         PUBLIC        FilterCommCode
  C:06F7H         SYMBOL        Com00A2
  C:06F7H         SYMBOL        L?0163
  C:0705H         SYMBOL        L?0164
  C:0707H         SYMBOL        L?0165
  C:070AH         SYMBOL        L?0166
  C:0710H         SYMBOL        L?0167
  C:0710H         SYMBOL        L?0168
  C:0712H         SYMBOL        L?0169
  C:0715H         SYMBOL        L?0170
  C:071BH         SYMBOL        L?0171
  C:071BH         SYMBOL        L?0172
  C:071DH         SYMBOL        L?0173
  C:0726H         SYMBOL        L?0174
BL51 BANKED LINKER/LOCATER V6.22.2.0                                                  01/06/2020  19:42:18  PAGE 15


  C:0726H         SYMBOL        L?0175
  C:072AH         SYMBOL        L?0176
  C:0732H         SYMBOL        L?0177
  C:0732H         SYMBOL        L?0178
  C:0733H         SYMBOL        L?0179
  C:0737H         SYMBOL        L?0180
  C:0740H         SYMBOL        L?0181
  C:0740H         SYMBOL        L?0182
  C:0744H         SYMBOL        L?0183
  C:074CH         SYMBOL        L?0184
  C:074DH         SYMBOL        L?0185
  C:074EH         SYMBOL        L?0186
  C:074FH         SYMBOL        L?0187
  C:0759H         SYMBOL        L?0188
  C:0759H         SYMBOL        L?0189
  C:075DH         SYMBOL        L?0190
  C:0765H         SYMBOL        L?0191
  C:0767H         SYMBOL        L?0192
  C:0768H         SYMBOL        L?0193
  C:0774H         SYMBOL        L?0194
  C:0774H         SYMBOL        L?0195
  C:0776H         SYMBOL        L?0196
  C:0779H         SYMBOL        L?0197
  C:077FH         SYMBOL        L?0198
  C:077FH         SYMBOL        L?0199
  C:0791H         SYMBOL        L?0200
  C:0793H         SYMBOL        L?0201
  C:0797H         SYMBOL        L?0202
  C:07A0H         SYMBOL        L?0203
  C:07B5H         SYMBOL        L?0204
  C:07C9H         SYMBOL        L?0205
  C:07CDH         SYMBOL        L?0206
  C:07D5H         SYMBOL        L?0207
  C:07D5H         SYMBOL        L?0208
  C:07DEH         SYMBOL        L?0209
  C:07ECH         SYMBOL        L?0210
  C:07F8H         SYMBOL        L?0211
  C:07F8H         SYMBOL        L?0212
  C:07FFH         SYMBOL        L?0213
  C:080CH         SYMBOL        L?0214
  -------         PROC          COM00A2
  -------         ENDPROC       COM00A2
  -------         PROC          _USDELAY
  D:0006H         SYMBOL        delay
  C:1041H         LINE#         122
  C:1041H         LINE#         123
  C:1041H         LINE#         124
  C:1045H         LINE#         125
  C:1045H         LINE#         126
  C:104AH         LINE#         127
  C:104CH         LINE#         128
  -------         ENDPROC       _USDELAY
  -------         PROC          _ICHAADJUST
  D:001BH         SYMBOL        Channel
  -------         DO            
  X:006BH         SYMBOL        icha_set
  -------         ENDDO         
BL51 BANKED LINKER/LOCATER V6.22.2.0                                                  01/06/2020  19:42:18  PAGE 16


  C:0A2AH         LINE#         136
  C:0A2CH         LINE#         137
  C:0A2CH         LINE#         139
  C:0A34H         LINE#         140
  C:0A59H         LINE#         141
  C:0A59H         LINE#         142
  C:0A5FH         LINE#         143
  C:0A5FH         LINE#         144
  C:0A60H         LINE#         145
  C:0A60H         LINE#         146
  C:0A60H         LINE#         147
  C:0A62H         LINE#         148
  C:0A8DH         LINE#         149
  C:0A8DH         LINE#         150
  C:0A96H         LINE#         151
  C:0A96H         LINE#         152
  C:0AA6H         LINE#         153
  C:0AA8H         LINE#         154
  C:0AA8H         LINE#         155
  C:0AA8H         LINE#         156
  -------         ENDPROC       _ICHAADJUST
  -------         PROC          TOUCHKEY_SERVICE
  -------         DO            
  B:0020H.2       SYMBOL        Scanflag
  -------         ENDDO         
  C:0AA9H         LINE#         164
  C:0AA9H         LINE#         165
  C:0AA9H         LINE#         166
  C:0AABH         LINE#         168
  C:0AB9H         LINE#         169
  C:0ABFH         LINE#         171
  C:0AC5H         LINE#         172
  C:0AC5H         LINE#         173
  C:0AC7H         LINE#         174
  C:0ACEH         LINE#         175
  C:0AD0H         LINE#         177
  C:0AD0H         LINE#         178
  C:0AD2H         LINE#         179
  C:0AD2H         LINE#         180
  C:0ADDH         LINE#         181
  C:0AE5H         LINE#         182
  C:0AFCH         LINE#         183
  C:0B0BH         LINE#         184
  C:0B1DH         LINE#         186
  C:0B22H         LINE#         188
  -------         ENDPROC       TOUCHKEY_SERVICE
  -------         PROC          TOUCHKEYINIT
  C:0B23H         LINE#         197
  C:0B23H         LINE#         198
  C:0B23H         LINE#         199
  C:0B26H         LINE#         200
  C:0B29H         LINE#         202
  C:0B2BH         LINE#         204
  C:0B2DH         LINE#         205
  C:0B32H         LINE#         206
  C:0B36H         LINE#         208
  C:0B39H         LINE#         209
BL51 BANKED LINKER/LOCATER V6.22.2.0                                                  01/06/2020  19:42:18  PAGE 17


  C:0B54H         LINE#         210
  C:0B59H         LINE#         212
  C:0B70H         LINE#         213
  C:0B78H         LINE#         214
  C:0B78H         LINE#         215
  C:0B80H         LINE#         217
  C:0B80H         LINE#         218
  C:0B87H         LINE#         220
  C:0B8AH         LINE#         221
  C:0B8DH         LINE#         223
  C:0B95H         LINE#         224
  C:0B98H         LINE#         225
  -------         ENDPROC       TOUCHKEYINIT
  -------         PROC          TOUCHKEYRESTART
  C:10ADH         LINE#         235
  C:10ADH         LINE#         236
  C:10ADH         LINE#         237
  C:10AFH         LINE#         238
  -------         ENDPROC       TOUCHKEYRESTART
  -------         PROC          FILTERCOMMCODE
  -------         DO            
  D:0005H         SYMBOL        times
  -------         ENDDO         
  C:0F4DH         LINE#         247
  C:0F4DH         LINE#         248
  C:0F4DH         LINE#         249
  C:0F4FH         LINE#         251
  C:0F56H         LINE#         252
  C:0F58H         LINE#         254
  C:0F5FH         LINE#         255
  C:0F5FH         LINE#         256
  C:0F66H         LINE#         257
  C:0F69H         LINE#         258
  C:0F6AH         LINE#         259
  C:0F70H         LINE#         260
  C:0F71H         LINE#         262
  -------         ENDPROC       FILTERCOMMCODE
  -------         PROC          FILTERAVERGEDEAL
  -------         DO            
  D:0008H         SYMBOL        t
  D:0009H         SYMBOL        i
  -------         ENDDO         
  C:0C81H         LINE#         271
  C:0C81H         LINE#         272
  C:0C81H         LINE#         275
  C:0C84H         LINE#         277
  C:0C84H         LINE#         278
  C:0C87H         LINE#         279
  C:0C91H         LINE#         280
  C:0C91H         LINE#         281
  C:0CA3H         LINE#         282
  C:0CA8H         LINE#         283
  C:0CACH         LINE#         284
  C:0CB3H         LINE#         285
  C:0CB6H         LINE#         287
  C:0CBBH         LINE#         289
  C:0CBBH         LINE#         290
BL51 BANKED LINKER/LOCATER V6.22.2.0                                                  01/06/2020  19:42:18  PAGE 18


  C:0CBEH         LINE#         291
  C:0CC8H         LINE#         292
  C:0CC8H         LINE#         293
  C:0CCDH         LINE#         294
  C:0CD1H         LINE#         295
  C:0CD8H         LINE#         296
  -------         ENDPROC       FILTERAVERGEDEAL
  -------         PROC          INITIALIZEBASELINES
  -------         DO            
  D:0007H         SYMBOL        i
  -------         ENDDO         
  C:0F97H         LINE#         305
  C:0F97H         LINE#         306
  C:0F97H         LINE#         308
  C:0F9FH         LINE#         309
  C:0F9FH         LINE#         310
  C:0FB7H         LINE#         311
  C:0FBAH         LINE#         312
  -------         ENDPROC       INITIALIZEBASELINES
  -------         PROC          SENSORKEYFLAG
  -------         DO            
  D:0011H         SYMBOL        i
  -------         ENDDO         
  C:0F72H         LINE#         321
  C:0F72H         LINE#         322
  C:0F72H         LINE#         325
  C:0F77H         LINE#         326
  C:0F80H         LINE#         327
  C:0F80H         LINE#         328
  C:0F85H         LINE#         329
  C:0F8AH         LINE#         330
  C:0F8EH         LINE#         331
  C:0F96H         LINE#         332
  -------         ENDPROC       SENSORKEYFLAG
  -------         PROC          _SENSORRENOVATE
  D:0012H         SYMBOL        i
  -------         DO            
  D:0013H         SYMBOL        differData
  D:0015H         SYMBOL        result
  D:0016H         SYMBOL        j
  D:0017H         SYMBOL        RealConfirmTouchCnt
  D:0018H         SYMBOL        SetFingerThresholdtmp
  D:001AH         SYMBOL        testcount
  -------         ENDDO         
  C:0100H         LINE#         341
  C:0102H         LINE#         342
  C:0102H         LINE#         348
  C:0105H         LINE#         350
  C:011DH         LINE#         353
  C:0132H         LINE#         355
  C:013BH         LINE#         357
  C:0147H         LINE#         358
  C:0147H         LINE#         359
  C:014AH         LINE#         360
  C:014CH         LINE#         362
  C:014CH         LINE#         363
  C:014FH         LINE#         364
BL51 BANKED LINKER/LOCATER V6.22.2.0                                                  01/06/2020  19:42:18  PAGE 19


  C:014FH         LINE#         367
  C:0158H         LINE#         368
  C:0158H         LINE#         369
  C:0165H         LINE#         370
  C:0165H         LINE#         371
  C:016FH         LINE#         372
  C:016FH         LINE#         374
  C:0180H         LINE#         375
  C:0180H         LINE#         376
  C:0186H         LINE#         377
  C:018CH         LINE#         378
  C:018CH         LINE#         379
  C:018FH         LINE#         380
  C:0198H         LINE#         381
  C:0198H         LINE#         382
  C:01A1H         LINE#         383
  C:01A3H         LINE#         384
  C:01A7H         LINE#         385
  C:01AEH         LINE#         386
  C:01AEH         LINE#         387
  C:01B4H         LINE#         388
  C:01B4H         LINE#         389
  C:01B4H         LINE#         390
  C:01C4H         LINE#         391
  C:01C4H         LINE#         392
  C:01C7H         LINE#         394
  C:01CDH         LINE#         395
  C:01CDH         LINE#         396
  C:01D6H         LINE#         397
  C:01D6H         LINE#         398
  C:01DCH         LINE#         399
  C:01DCH         LINE#         400
  C:01E7H         LINE#         401
  C:01E7H         LINE#         402
  C:01EAH         LINE#         403
  C:01ECH         LINE#         404
  C:01ECH         LINE#         405
  C:01ECH         LINE#         406
  C:01F0H         LINE#         407
  C:01F6H         LINE#         408
  C:01F6H         LINE#         409
  C:01FAH         LINE#         410
  C:01FAH         LINE#         411
  C:0203H         LINE#         412
  C:0203H         LINE#         413
  C:0209H         LINE#         414
  C:0209H         LINE#         415
  C:0218H         LINE#         416
  C:0218H         LINE#         417
  C:0218H         LINE#         418
  C:021AH         LINE#         419
  C:021AH         LINE#         420
  C:021AH         LINE#         421
  C:021EH         LINE#         422
  C:021EH         LINE#         423
  C:021EH         LINE#         424
  C:021EH         LINE#         426
BL51 BANKED LINKER/LOCATER V6.22.2.0                                                  01/06/2020  19:42:18  PAGE 20


  C:021EH         LINE#         427
  C:0224H         LINE#         428
  C:0224H         LINE#         429
  C:0226H         LINE#         430
  C:022FH         LINE#         431
  C:022FH         LINE#         432
  C:0238H         LINE#         433
  C:0238H         LINE#         434
  C:023AH         LINE#         435
  C:023AH         LINE#         436
  C:023EH         LINE#         437
  C:0245H         LINE#         438
  C:0245H         LINE#         439
  C:0248H         LINE#         440
  C:0248H         LINE#         441
  C:0248H         LINE#         442
  C:0248H         LINE#         444
  C:024DH         LINE#         445
  C:024DH         LINE#         446
  C:024FH         LINE#         447
  C:024FH         LINE#         448
  C:026AH         LINE#         449
  C:026AH         LINE#         450
  C:026AH         LINE#         453
  C:026FH         LINE#         454
  C:0274H         LINE#         455
  C:027BH         LINE#         456
  C:0284H         LINE#         457
  C:0287H         LINE#         460
  C:0287H         LINE#         461
  C:0291H         LINE#         462
  C:0291H         LINE#         463
  C:0291H         LINE#         464
  C:0291H         LINE#         465
  C:0297H         LINE#         466
  C:0297H         LINE#         467
  C:0299H         LINE#         469
  C:0299H         LINE#         470
  C:029FH         LINE#         471
  C:02A4H         LINE#         472
  C:02A4H         LINE#         474
  C:02BDH         LINE#         475
  C:02BDH         LINE#         476
  C:02C1H         LINE#         477
  C:02C4H         LINE#         478
  C:02CCH         LINE#         479
  C:02CCH         LINE#         480
  C:02D7H         LINE#         481
  C:02E7H         LINE#         482
  C:02E7H         LINE#         483
  C:02EEH         LINE#         484
  C:02EEH         LINE#         485
  C:02F0H         LINE#         486
  C:030AH         LINE#         487
  C:030AH         LINE#         488
  C:0314H         LINE#         489
  C:031BH         LINE#         490
BL51 BANKED LINKER/LOCATER V6.22.2.0                                                  01/06/2020  19:42:18  PAGE 21


  C:031BH         LINE#         491
  C:031BH         LINE#         492
  C:031EH         LINE#         493
  C:0339H         LINE#         494
  C:0339H         LINE#         495
  C:033CH         LINE#         496
  C:0341H         LINE#         497
  C:034EH         LINE#         498
  C:034EH         LINE#         500
  C:0354H         LINE#         501
  C:0354H         LINE#         502
  C:0359H         LINE#         503
  C:035BH         LINE#         504
  C:0360H         LINE#         505
  C:0362H         LINE#         507
  C:0362H         LINE#         508
  C:0385H         LINE#         509
  C:0385H         LINE#         510
  C:0385H         LINE#         511
  C:038DH         LINE#         512
  C:038DH         LINE#         513
  C:0390H         LINE#         514
  C:0390H         LINE#         515
  C:0393H         LINE#         516
  C:039BH         LINE#         517
  C:039BH         LINE#         518
  C:039EH         LINE#         519
  C:03A3H         LINE#         520
  C:03A3H         LINE#         521
  C:03A6H         LINE#         522
  C:03ADH         LINE#         523
  C:03ADH         LINE#         524
  C:03B2H         LINE#         525
  C:03CAH         LINE#         526
  C:03CAH         LINE#         527
  C:03CAH         LINE#         528
  C:03CAH         LINE#         531
  C:03D5H         LINE#         532
  C:03D5H         LINE#         533
  C:03F3H         LINE#         534
  C:03F3H         LINE#         535
  C:03F9H         LINE#         536
  C:03FEH         LINE#         537
  C:0408H         LINE#         538
  C:0408H         LINE#         539
  C:0411H         LINE#         540
  C:0413H         LINE#         541
  C:0417H         LINE#         542
  C:041EH         LINE#         543
  C:041EH         LINE#         544
  C:0424H         LINE#         545
  C:0424H         LINE#         546
  C:042DH         LINE#         547
  C:042DH         LINE#         548
  C:0432H         LINE#         549
  C:0454H         LINE#         550
  C:0461H         LINE#         551
BL51 BANKED LINKER/LOCATER V6.22.2.0                                                  01/06/2020  19:42:18  PAGE 22


  C:0461H         LINE#         552
  C:0462H         LINE#         554
  C:0462H         LINE#         555
  C:0468H         LINE#         556
  C:0468H         LINE#         557
  C:0469H         LINE#         559
  C:0469H         LINE#         560
  C:0470H         LINE#         562
  C:0475H         LINE#         563
  C:0475H         LINE#         564
  C:047AH         LINE#         565
  C:047AH         LINE#         567
  C:0481H         LINE#         568
  C:0481H         LINE#         570
  C:0481H         LINE#         572
  C:048AH         LINE#         573
  C:048AH         LINE#         575
  C:048AH         LINE#         577
  C:0494H         LINE#         578
  C:0494H         LINE#         579
  C:049AH         LINE#         580
  C:049AH         LINE#         581
  C:049DH         LINE#         582
  C:049DH         LINE#         583
  C:04A1H         LINE#         584
  C:04A5H         LINE#         585
  C:04A5H         LINE#         586
  C:04A7H         LINE#         587
  C:04A7H         LINE#         588
  C:04A7H         LINE#         590
  C:04A7H         LINE#         591
  -------         ENDPROC       _SENSORRENOVATE
  -------         PROC          FILTERIIRINIT
  -------         DO            
  D:0007H         SYMBOL        i
  -------         ENDDO         
  C:0FBBH         LINE#         599
  C:0FBBH         LINE#         600
  C:0FBBH         LINE#         602
  C:0FC3H         LINE#         603
  C:0FC3H         LINE#         604
  C:0FD8H         LINE#         605
  C:0FDBH         LINE#         606
  -------         ENDPROC       FILTERIIRINIT
  -------         PROC          _FILTERDATADEAL
  D:0013H         SYMBOL        i
  -------         DO            
  D:0014H         SYMBOL        FilterTemp
  D:0004H         SYMBOL        SetFingerThresholdtmp
  -------         ENDDO         
  C:08E3H         LINE#         615
  C:08E5H         LINE#         616
  C:08E5H         LINE#         620
  C:08F2H         LINE#         622
  C:08FBH         LINE#         624
  C:0910H         LINE#         625
  C:0910H         LINE#         626
BL51 BANKED LINKER/LOCATER V6.22.2.0                                                  01/06/2020  19:42:18  PAGE 23


  C:0918H         LINE#         627
  C:091BH         LINE#         628
  C:0934H         LINE#         629
  C:0934H         LINE#         630
  C:0959H         LINE#         631
  C:095BH         LINE#         633
  C:095BH         LINE#         634
  C:0993H         LINE#         635
  C:0993H         LINE#         637
  C:099DH         LINE#         638
  -------         ENDPROC       _FILTERDATADEAL
  -------         PROC          GETISNEEDUPDATEBASELINE
  C:10B0H         LINE#         647
  C:10B0H         LINE#         648
  C:10B0H         LINE#         649
  C:10B2H         LINE#         650
  -------         ENDPROC       GETISNEEDUPDATEBASELINE
  -------         PROC          SETNEEDUPDATEBASELINE
  C:10B3H         LINE#         659
  C:10B3H         LINE#         660
  C:10B3H         LINE#         661
  C:10B5H         LINE#         662
  -------         ENDPROC       SETNEEDUPDATEBASELINE
  -------         PROC          INITIALIZESENSORFLAG
  -------         DO            
  D:0007H         SYMBOL        i
  -------         ENDDO         
  C:0D7FH         LINE#         671
  C:0D7FH         LINE#         672
  C:0D7FH         LINE#         674
  C:0D87H         LINE#         675
  C:0D87H         LINE#         676
  C:0D8FH         LINE#         677
  C:0D97H         LINE#         678
  C:0D9FH         LINE#         679
  C:0DA7H         LINE#         680
  C:0DAFH         LINE#         681
  C:0DB2H         LINE#         683
  C:0DBBH         LINE#         684
  C:0DC1H         LINE#         685
  C:0DC8H         LINE#         686
  C:0DCAH         LINE#         687
  -------         ENDPROC       INITIALIZESENSORFLAG
  -------         PROC          _MULTIPLEDEAL
  D:0011H         SYMBOL        CycleCnt
  -------         DO            
  X:0062H         SYMBOL        InitSensorCnt
  D:0004H         SYMBOL        FilterTemp
  D:0012H         SYMBOL        t
  -------         ENDDO         
  C:05D8H         LINE#         696
  C:05DAH         LINE#         697
  C:05DAH         LINE#         703
  C:05E3H         LINE#         704
  C:05E3H         LINE#         705
  C:05E5H         LINE#         706
  C:05EBH         LINE#         707
BL51 BANKED LINKER/LOCATER V6.22.2.0                                                  01/06/2020  19:42:18  PAGE 24


  C:05EBH         LINE#         708
  C:05F4H         LINE#         709
  C:05F4H         LINE#         710
  C:0609H         LINE#         711
  C:060DH         LINE#         712
  C:060DH         LINE#         713
  C:0610H         LINE#         714
  C:0612H         LINE#         715
  C:0618H         LINE#         717
  C:0618H         LINE#         719
  C:061EH         LINE#         720
  C:0622H         LINE#         721
  C:0622H         LINE#         722
  C:0625H         LINE#         723
  C:062AH         LINE#         724
  C:062AH         LINE#         726
  C:0636H         LINE#         727
  C:0636H         LINE#         728
  C:0640H         LINE#         729
  C:0640H         LINE#         730
  C:0659H         LINE#         731
  C:065FH         LINE#         732
  C:065FH         LINE#         733
  C:0686H         LINE#         734
  C:0688H         LINE#         737
  C:0688H         LINE#         738
  C:06B0H         LINE#         739
  C:06B0H         LINE#         740
  C:06B0H         LINE#         741
  C:06B5H         LINE#         742
  C:06BAH         LINE#         744
  C:06BFH         LINE#         745
  C:06BFH         LINE#         746
  C:06C5H         LINE#         747
  C:06C5H         LINE#         749
  C:06D2H         LINE#         750
  C:06D2H         LINE#         751
  C:06D4H         LINE#         752
  C:06D6H         LINE#         753
  C:06DCH         LINE#         754
  C:06E9H         LINE#         755
  C:06E9H         LINE#         756
  C:06EEH         LINE#         757
  C:06F1H         LINE#         758
  C:06F4H         LINE#         759
  C:06F6H         LINE#         760
  C:06F6H         LINE#         761
  C:06F6H         LINE#         762
  C:06F6H         LINE#         763
  -------         ENDPROC       _MULTIPLEDEAL
  -------         ENDMOD        SENSORMETHOD

  -------         MODULE        ?C?IMUL
  C:0816H         PUBLIC        ?C?IMUL
  -------         ENDMOD        ?C?IMUL

  -------         MODULE        ?C?UIDIV
BL51 BANKED LINKER/LOCATER V6.22.2.0                                                  01/06/2020  19:42:18  PAGE 25


  C:0828H         PUBLIC        ?C?UIDIV
  -------         ENDMOD        ?C?UIDIV

  -------         MODULE        ?C?IILDX
  C:087DH         PUBLIC        ?C?IILDX
  -------         ENDMOD        ?C?IILDX

  -------         MODULE        ?C?LNOT
  C:0893H         PUBLIC        ?C?LNOT
  -------         ENDMOD        ?C?LNOT

  -------         MODULE        ?C?ULCMP
  C:08A0H         PUBLIC        ?C?ULCMP
  -------         ENDMOD        ?C?ULCMP

  -------         MODULE        ?C?ULSHR
  C:08B1H         PUBLIC        ?C?ULSHR
  -------         ENDMOD        ?C?ULSHR

  -------         MODULE        ?C?LSHL
  C:08C4H         PUBLIC        ?C?LSHL
  -------         ENDMOD        ?C?LSHL

  -------         MODULE        ?C?OFFXADD
  C:08D7H         PUBLIC        ?C?OFFXADD
  -------         ENDMOD        ?C?OFFXADD

*** WARNING L16: UNCALLED SEGMENT, IGNORED FOR OVERLAY PROCESS
    SEGMENT: ?PR?LED1_ON?MAIN

*** WARNING L16: UNCALLED SEGMENT, IGNORED FOR OVERLAY PROCESS
    SEGMENT: ?PR?LED3_OFF?MAIN

Program Size: data=50.3 xdata=108 code=4037
LINK/LOCATE RUN COMPLETE.  2 WARNING(S),  0 ERROR(S)
